#include <math.h>
#include <stdio.h>
#include <stdlib.h>
#include <string.h>

void main()
{
	int n,m=0,i,a[10];
	scanf("%d",&n);
	do
	{
		a[m]=n%10;
		n/=10;
		m++;
	}while(n>0);
	for(i=0;i<m;i++)
	{
		printf("%d",a[i]);
	}
	printf("\n");
}